target datalayout = "e-m:e-p270:32:32-p271:32:32-p272:64:64-i64:64-i128:128-f80:128-n8:16:32:64-S128"
target triple = "x86_64-pc-linux-gnu"

%struct.VacAttrStats = type { i32, i32, i32, ptr, i32, ptr, ptr, i32, ptr, i8, float, i32, float, [5 x i16], [5 x i32], [5 x i32], [5 x i32], [5 x ptr], [5 x i32], [5 x ptr], [5 x i32], [5 x i16], [5 x i8], [5 x i8], i32, ptr, ptr, ptr, ptr, i32 }
%struct.StatsBuildData = type { i32, i32, ptr, ptr, ptr, ptr }
%struct.SortItem = type { ptr, ptr, i32 }

; Function Attrs: inlinehint nounwind uwtable
define internal i64 @PointerGetDatum(ptr noundef %0) #3 {
  %2 = alloca ptr, align 8
  store ptr %0, ptr %2, align 8
  %3 = load ptr, ptr %2, align 8
  %4 = ptrtoint ptr %3 to i64
  ret i64 %4
}

; Function Attrs: inlinehint nounwind uwtable
define internal ptr @DatumGetPointer(i64 noundef %0) #3 {
  %2 = alloca i64, align 8
  store i64 %0, ptr %2, align 8
  %3 = load i64, ptr %2, align 8
  %4 = inttoptr i64 %3 to ptr
  ret ptr %4
}

; Function Attrs: nounwind uwtable
define dso_local ptr @build_sorted_items(ptr noundef %0, ptr noundef %1, ptr noundef %2, i32 noundef %3, ptr noundef %4) #0 {
  %6 = alloca ptr, align 8
  %7 = alloca ptr, align 8
  %8 = alloca ptr, align 8
  %9 = alloca ptr, align 8
  %10 = alloca i32, align 4
  %11 = alloca ptr, align 8
  %12 = alloca i32, align 4
  %13 = alloca i32, align 4
  %14 = alloca i32, align 4
  %15 = alloca i32, align 4
  %16 = alloca i32, align 4
  %17 = alloca ptr, align 8
  %18 = alloca ptr, align 8
  %19 = alloca ptr, align 8
  %20 = alloca ptr, align 8
  %21 = alloca ptr, align 8
  %22 = alloca i8, align 1
  %23 = alloca i64, align 8
  %24 = alloca i8, align 1
  %25 = alloca i32, align 4
  %26 = alloca i16, align 2
  %27 = alloca i32, align 4
  %28 = alloca i32, align 4
  store ptr %0, ptr %7, align 8
  store ptr %1, ptr %8, align 8
  store ptr %2, ptr %9, align 8
  store i32 %3, ptr %10, align 4
  store ptr %4, ptr %11, align 8
  call void @llvm.lifetime.start.p0(i64 4, ptr %12) #8
  call void @llvm.lifetime.start.p0(i64 4, ptr %13) #8
  call void @llvm.lifetime.start.p0(i64 4, ptr %14) #8
  call void @llvm.lifetime.start.p0(i64 4, ptr %15) #8
  call void @llvm.lifetime.start.p0(i64 4, ptr %16) #8
  %29 = load ptr, ptr %7, align 8
  %30 = getelementptr inbounds nuw %struct.StatsBuildData, ptr %29, i32 0, i32 0
  %31 = load i32, ptr %30, align 8
  %32 = load i32, ptr %10, align 4
  %33 = mul i32 %31, %32
  store i32 %33, ptr %16, align 4
  call void @llvm.lifetime.start.p0(i64 8, ptr %17) #8
  call void @llvm.lifetime.start.p0(i64 8, ptr %18) #8
  call void @llvm.lifetime.start.p0(i64 8, ptr %19) #8
  call void @llvm.lifetime.start.p0(i64 8, ptr %20) #8
  call void @llvm.lifetime.start.p0(i64 8, ptr %21) #8
  %34 = load ptr, ptr %7, align 8
  %35 = getelementptr inbounds nuw %struct.StatsBuildData, ptr %34, i32 0, i32 0
  %36 = load i32, ptr %35, align 8
  %37 = sext i32 %36 to i64
  %38 = mul i64 %37, 24
  %39 = load i32, ptr %16, align 4
  %40 = sext i32 %39 to i64
  %41 = mul i64 %40, 9
  %42 = add i64 %38, %41
  %43 = trunc i64 %42 to i32
  store i32 %43, ptr %14, align 4
  %44 = load i32, ptr %14, align 4
  %45 = sext i32 %44 to i64
  %46 = call ptr @palloc0(i64 noundef %45)
  store ptr %46, ptr %20, align 8
  %47 = load ptr, ptr %20, align 8
  store ptr %47, ptr %17, align 8
  %48 = load ptr, ptr %7, align 8
  %49 = getelementptr inbounds nuw %struct.StatsBuildData, ptr %48, i32 0, i32 0
  %50 = load i32, ptr %49, align 8
  %51 = sext i32 %50 to i64
  %52 = mul i64 %51, 24
  %53 = load ptr, ptr %20, align 8
  %54 = getelementptr inbounds nuw i8, ptr %53, i64 %52
  store ptr %54, ptr %20, align 8
  %55 = load ptr, ptr %20, align 8
  store ptr %55, ptr %18, align 8
  %56 = load i32, ptr %16, align 4
  %57 = sext i32 %56 to i64
  %58 = mul i64 %57, 8
  %59 = load ptr, ptr %20, align 8
  %60 = getelementptr inbounds nuw i8, ptr %59, i64 %58
  store ptr %60, ptr %20, align 8
  %61 = load ptr, ptr %20, align 8
  store ptr %61, ptr %19, align 8
  %62 = load i32, ptr %16, align 4
  %63 = sext i32 %62 to i64
  %64 = mul i64 %63, 1
  %65 = load ptr, ptr %20, align 8
  %66 = getelementptr inbounds nuw i8, ptr %65, i64 %64
  store ptr %66, ptr %20, align 8
  store i32 0, ptr %15, align 4
  store i32 0, ptr %12, align 4
  br label %67

67:                                               ; preds = %98, %5
  %68 = load i32, ptr %12, align 4
  %69 = load ptr, ptr %7, align 8
  %70 = getelementptr inbounds nuw %struct.StatsBuildData, ptr %69, i32 0, i32 0
  %71 = load i32, ptr %70, align 8
  %72 = icmp slt i32 %68, %71
  br i1 %72, label %73, label %101

73:                                               ; preds = %67
  %74 = load ptr, ptr %18, align 8
  %75 = load i32, ptr %15, align 4
  %76 = load i32, ptr %10, align 4
  %77 = mul i32 %75, %76
  %78 = sext i32 %77 to i64
  %79 = getelementptr inbounds i64, ptr %74, i64 %78
  %80 = load ptr, ptr %17, align 8
  %81 = load i32, ptr %15, align 4
  %82 = sext i32 %81 to i64
  %83 = getelementptr inbounds %struct.SortItem, ptr %80, i64 %82
  %84 = getelementptr inbounds nuw %struct.SortItem, ptr %83, i32 0, i32 0
  store ptr %79, ptr %84, align 8
  %85 = load ptr, ptr %19, align 8
  %86 = load i32, ptr %15, align 4
  %87 = load i32, ptr %10, align 4
  %88 = mul i32 %86, %87
  %89 = sext i32 %88 to i64
  %90 = getelementptr inbounds i8, ptr %85, i64 %89
  %91 = load ptr, ptr %17, align 8
  %92 = load i32, ptr %15, align 4
  %93 = sext i32 %92 to i64
  %94 = getelementptr inbounds %struct.SortItem, ptr %91, i64 %93
  %95 = getelementptr inbounds nuw %struct.SortItem, ptr %94, i32 0, i32 1
  store ptr %90, ptr %95, align 8
  %96 = load i32, ptr %15, align 4
  %97 = add i32 %96, 1
  store i32 %97, ptr %15, align 4
  br label %98

98:                                               ; preds = %73
  %99 = load i32, ptr %12, align 4
  %100 = add i32 %99, 1
  store i32 %100, ptr %12, align 4
  br label %67, !llvm.loop !38

101:                                              ; preds = %67
  %102 = load ptr, ptr %7, align 8
  %103 = getelementptr inbounds nuw %struct.StatsBuildData, ptr %102, i32 0, i32 1
  %104 = load i32, ptr %103, align 4
  %105 = sext i32 %104 to i64
  %106 = mul i64 4, %105
  %107 = call ptr @palloc(i64 noundef %106)
  store ptr %107, ptr %21, align 8
  store i32 0, ptr %12, align 4
  br label %108

108:                                              ; preds = %130, %101
  %109 = load i32, ptr %12, align 4
  %110 = load ptr, ptr %7, align 8
  %111 = getelementptr inbounds nuw %struct.StatsBuildData, ptr %110, i32 0, i32 1
  %112 = load i32, ptr %111, align 4
  %113 = icmp slt i32 %109, %112
  br i1 %113, label %114, label %133

114:                                              ; preds = %108
  %115 = load ptr, ptr %7, align 8
  %116 = getelementptr inbounds nuw %struct.StatsBuildData, ptr %115, i32 0, i32 3
  %117 = load ptr, ptr %116, align 8
  %118 = load i32, ptr %12, align 4
  %119 = sext i32 %118 to i64
  %120 = getelementptr inbounds ptr, ptr %117, i64 %119
  %121 = load ptr, ptr %120, align 8
  %122 = getelementptr inbounds nuw %struct.VacAttrStats, ptr %121, i32 0, i32 1
  %123 = load i32, ptr %122, align 4
  %124 = call signext i16 @get_typlen(i32 noundef %123)
  %125 = sext i16 %124 to i32
  %126 = load ptr, ptr %21, align 8
  %127 = load i32, ptr %12, align 4
  %128 = sext i32 %127 to i64
  %129 = getelementptr inbounds i32, ptr %126, i64 %128
  store i32 %125, ptr %129, align 4
  br label %130

130:                                              ; preds = %114
  %131 = load i32, ptr %12, align 4
  %132 = add i32 %131, 1
  store i32 %132, ptr %12, align 4
  br label %108, !llvm.loop !39

133:                                              ; preds = %108
  store i32 0, ptr %15, align 4
  store i32 0, ptr %12, align 4
  br label %134

134:                                              ; preds = %258, %133
  %135 = load i32, ptr %12, align 4
  %136 = load ptr, ptr %7, align 8
  %137 = getelementptr inbounds nuw %struct.StatsBuildData, ptr %136, i32 0, i32 0
  %138 = load i32, ptr %137, align 8
  %139 = icmp slt i32 %135, %138
  br i1 %139, label %140, label %261

140:                                              ; preds = %134
  call void @llvm.lifetime.start.p0(i64 1, ptr %22) #8
  store i8 0, ptr %22, align 1
  store i32 0, ptr %13, align 4
  br label %141

141:                                              ; preds = %245, %140
  %142 = load i32, ptr %13, align 4
  %143 = load i32, ptr %10, align 4
  %144 = icmp slt i32 %142, %143
  br i1 %144, label %145, label %248

145:                                              ; preds = %141
  call void @llvm.lifetime.start.p0(i64 8, ptr %23) #8
  call void @llvm.lifetime.start.p0(i64 1, ptr %24) #8
  call void @llvm.lifetime.start.p0(i64 4, ptr %25) #8
  call void @llvm.lifetime.start.p0(i64 2, ptr %26) #8
  %146 = load ptr, ptr %11, align 8
  %147 = load i32, ptr %13, align 4
  %148 = sext i32 %147 to i64
  %149 = getelementptr inbounds i16, ptr %146, i64 %148
  %150 = load i16, ptr %149, align 2
  store i16 %150, ptr %26, align 2
  call void @llvm.lifetime.start.p0(i64 4, ptr %27) #8
  store i32 0, ptr %27, align 4
  br label %151

151:                                              ; preds = %171, %145
  %152 = load i32, ptr %27, align 4
  %153 = load ptr, ptr %7, align 8
  %154 = getelementptr inbounds nuw %struct.StatsBuildData, ptr %153, i32 0, i32 1
  %155 = load i32, ptr %154, align 4
  %156 = icmp slt i32 %152, %155
  br i1 %156, label %157, label %174

157:                                              ; preds = %151
  %158 = load i16, ptr %26, align 2
  %159 = sext i16 %158 to i32
  %160 = load ptr, ptr %7, align 8
  %161 = getelementptr inbounds nuw %struct.StatsBuildData, ptr %160, i32 0, i32 2
  %162 = load ptr, ptr %161, align 8
  %163 = load i32, ptr %27, align 4
  %164 = sext i32 %163 to i64
  %165 = getelementptr inbounds i16, ptr %162, i64 %164
  %166 = load i16, ptr %165, align 2
  %167 = sext i16 %166 to i32
  %168 = icmp eq i32 %159, %167
  br i1 %168, label %169, label %170

169:                                              ; preds = %157
  br label %174

170:                                              ; preds = %157
  br label %171

171:                                              ; preds = %170
  %172 = load i32, ptr %27, align 4
  %173 = add i32 %172, 1
  store i32 %173, ptr %27, align 4
  br label %151, !llvm.loop !40

174:                                              ; preds = %169, %151
  %175 = load ptr, ptr %7, align 8
  %176 = getelementptr inbounds nuw %struct.StatsBuildData, ptr %175, i32 0, i32 4
  %177 = load ptr, ptr %176, align 8
  %178 = load i32, ptr %27, align 4
  %179 = sext i32 %178 to i64
  %180 = getelementptr inbounds ptr, ptr %177, i64 %179
  %181 = load ptr, ptr %180, align 8
  %182 = load i32, ptr %12, align 4
  %183 = sext i32 %182 to i64
  %184 = getelementptr inbounds i64, ptr %181, i64 %183
  %185 = load i64, ptr %184, align 8
  store i64 %185, ptr %23, align 8
  %186 = load ptr, ptr %7, align 8
  %187 = getelementptr inbounds nuw %struct.StatsBuildData, ptr %186, i32 0, i32 5
  %188 = load ptr, ptr %187, align 8
  %189 = load i32, ptr %27, align 4
  %190 = sext i32 %189 to i64
  %191 = getelementptr inbounds ptr, ptr %188, i64 %190
  %192 = load ptr, ptr %191, align 8
  %193 = load i32, ptr %12, align 4
  %194 = sext i32 %193 to i64
  %195 = getelementptr inbounds i8, ptr %192, i64 %194
  %196 = load i8, ptr %195, align 1, !range !6, !noundef !7
  %197 = trunc i8 %196 to i1
  %198 = zext i1 %197 to i8
  store i8 %198, ptr %24, align 1
  %199 = load ptr, ptr %21, align 8
  %200 = load i32, ptr %27, align 4
  %201 = sext i32 %200 to i64
  %202 = getelementptr inbounds i32, ptr %199, i64 %201
  %203 = load i32, ptr %202, align 4
  store i32 %203, ptr %25, align 4
  %204 = load i8, ptr %24, align 1, !range !6, !noundef !7
  %205 = trunc i8 %204 to i1
  br i1 %205, label %219, label %206

206:                                              ; preds = %174
  %207 = load i32, ptr %25, align 4
  %208 = icmp eq i32 %207, -1
  br i1 %208, label %209, label %219

209:                                              ; preds = %206
  %210 = load i64, ptr %23, align 8
  %211 = call i64 @toast_raw_datum_size(i64 noundef %210)
  %212 = icmp ugt i64 %211, 1024
  br i1 %212, label %213, label %214

213:                                              ; preds = %209
  store i8 1, ptr %22, align 1
  store i32 11, ptr %28, align 4
  br label %242

214:                                              ; preds = %209
  %215 = load i64, ptr %23, align 8
  %216 = call ptr @DatumGetPointer(i64 noundef %215)
  %217 = call ptr @pg_detoast_datum(ptr noundef %216)
  %218 = call i64 @PointerGetDatum(ptr noundef %217)
  store i64 %218, ptr %23, align 8
  br label %219

219:                                              ; preds = %214, %206, %174
  %220 = load i64, ptr %23, align 8
  %221 = load ptr, ptr %17, align 8
  %222 = load i32, ptr %15, align 4
  %223 = sext i32 %222 to i64
  %224 = getelementptr inbounds %struct.SortItem, ptr %221, i64 %223
  %225 = getelementptr inbounds nuw %struct.SortItem, ptr %224, i32 0, i32 0
  %226 = load ptr, ptr %225, align 8
  %227 = load i32, ptr %13, align 4
  %228 = sext i32 %227 to i64
  %229 = getelementptr inbounds i64, ptr %226, i64 %228
  store i64 %220, ptr %229, align 8
  %230 = load i8, ptr %24, align 1, !range !6, !noundef !7
  %231 = trunc i8 %230 to i1
  %232 = load ptr, ptr %17, align 8
  %233 = load i32, ptr %15, align 4
  %234 = sext i32 %233 to i64
  %235 = getelementptr inbounds %struct.SortItem, ptr %232, i64 %234
  %236 = getelementptr inbounds nuw %struct.SortItem, ptr %235, i32 0, i32 1
  %237 = load ptr, ptr %236, align 8
  %238 = load i32, ptr %13, align 4
  %239 = sext i32 %238 to i64
  %240 = getelementptr inbounds i8, ptr %237, i64 %239
  %241 = zext i1 %231 to i8
  store i8 %241, ptr %240, align 1
  store i32 0, ptr %28, align 4
  br label %242

242:                                              ; preds = %219, %213
  call void @llvm.lifetime.end.p0(i64 4, ptr %27) #8
  call void @llvm.lifetime.end.p0(i64 2, ptr %26) #8
  call void @llvm.lifetime.end.p0(i64 4, ptr %25) #8
  call void @llvm.lifetime.end.p0(i64 1, ptr %24) #8
  call void @llvm.lifetime.end.p0(i64 8, ptr %23) #8
  %243 = load i32, ptr %28, align 4
  switch i32 %243, label %276 [
    i32 0, label %244
    i32 11, label %248
  ]

244:                                              ; preds = %242
  br label %245

245:                                              ; preds = %244
  %246 = load i32, ptr %13, align 4
  %247 = add i32 %246, 1
  store i32 %247, ptr %13, align 4
  br label %141, !llvm.loop !41

248:                                              ; preds = %242, %141
  %249 = load i8, ptr %22, align 1, !range !6, !noundef !7
  %250 = trunc i8 %249 to i1
  br i1 %250, label %251, label %252

251:                                              ; preds = %248
  store i32 10, ptr %28, align 4
  br label %255

252:                                              ; preds = %248
  %253 = load i32, ptr %15, align 4
  %254 = add i32 %253, 1
  store i32 %254, ptr %15, align 4
  store i32 0, ptr %28, align 4
  br label %255

255:                                              ; preds = %252, %251
  call void @llvm.lifetime.end.p0(i64 1, ptr %22) #8
  %256 = load i32, ptr %28, align 4
  switch i32 %256, label %276 [
    i32 0, label %257
    i32 10, label %258
  ]

257:                                              ; preds = %255
  br label %258

258:                                              ; preds = %257, %255
  %259 = load i32, ptr %12, align 4
  %260 = add i32 %259, 1
  store i32 %260, ptr %12, align 4
  br label %134, !llvm.loop !42

261:                                              ; preds = %134
  %262 = load i32, ptr %15, align 4
  %263 = load ptr, ptr %8, align 8
  store i32 %262, ptr %263, align 4
  %264 = load i32, ptr %15, align 4
  %265 = icmp eq i32 %264, 0
  br i1 %265, label %266, label %268

266:                                              ; preds = %261
  %267 = load ptr, ptr %17, align 8
  call void @pfree(ptr noundef %267)
  store ptr null, ptr %6, align 8
  store i32 1, ptr %28, align 4
  br label %274

268:                                              ; preds = %261
  %269 = load ptr, ptr %17, align 8
  %270 = load i32, ptr %15, align 4
  %271 = sext i32 %270 to i64
  %272 = load ptr, ptr %9, align 8
  call void @qsort_interruptible(ptr noundef %269, i64 noundef %271, i64 noundef 24, ptr noundef @multi_sort_compare, ptr noundef %272)
  %273 = load ptr, ptr %17, align 8
  store ptr %273, ptr %6, align 8
  store i32 1, ptr %28, align 4
  br label %274

274:                                              ; preds = %268, %266
  call void @llvm.lifetime.end.p0(i64 8, ptr %21) #8
  call void @llvm.lifetime.end.p0(i64 8, ptr %20) #8
  call void @llvm.lifetime.end.p0(i64 8, ptr %19) #8
  call void @llvm.lifetime.end.p0(i64 8, ptr %18) #8
  call void @llvm.lifetime.end.p0(i64 8, ptr %17) #8
  call void @llvm.lifetime.end.p0(i64 4, ptr %16) #8
  call void @llvm.lifetime.end.p0(i64 4, ptr %15) #8
  call void @llvm.lifetime.end.p0(i64 4, ptr %14) #8
  call void @llvm.lifetime.end.p0(i64 4, ptr %13) #8
  call void @llvm.lifetime.end.p0(i64 4, ptr %12) #8
  %275 = load ptr, ptr %6, align 8
  ret ptr %275

276:                                              ; preds = %255, %242
  unreachable
}