; Function Attrs: nounwind uwtable
define dso_local ptr @build_sorted_items(ptr noundef readonly captures(none) %0, ptr noundef writeonly captures(none) %1, ptr noundef %2, i32 noundef %3, ptr noundef readonly captures(none) %4) local_unnamed_addr #0 {
  %6 = load i32, ptr %0, align 8
  %7 = mul i32 %6, %3
  %8 = mul i32 %6, 24
  %9 = sext i32 %7 to i64
  %10 = mul i32 %7, 9
  %11 = add i32 %10, %8
  %12 = sext i32 %11 to i64
  %13 = tail call ptr @palloc0(i64 noundef %12) #10
  %14 = load i32, ptr %0, align 8
  %15 = sext i32 %14 to i64
  %16 = mul nsw i64 %15, 24
  %17 = getelementptr inbounds nuw i8, ptr %13, i64 %16
  %18 = shl nsw i64 %9, 3
  %19 = getelementptr inbounds nuw i8, ptr %17, i64 %18
  %20 = icmp sgt i32 %14, 0
  br i1 %20, label %.lr.ph, label %._crit_edge

.lr.ph:                                           ; preds = %5, %.lr.ph
  %indvars.iv = phi i64 [ %indvars.iv.next, %.lr.ph ], [ 0, %5 ]
  %21 = trunc nuw nsw i64 %indvars.iv to i32
  %22 = mul i32 %3, %21
  %23 = sext i32 %22 to i64
  %24 = getelementptr inbounds i64, ptr %17, i64 %23
  %25 = getelementptr inbounds nuw %struct.SortItem, ptr %13, i64 %indvars.iv
  store ptr %24, ptr %25, align 8
  %26 = getelementptr inbounds i8, ptr %19, i64 %23
  %27 = getelementptr inbounds nuw i8, ptr %25, i64 8
  store ptr %26, ptr %27, align 8
  %indvars.iv.next = add nuw nsw i64 %indvars.iv, 1
  %indvars = trunc i64 %indvars.iv.next to i32
  %28 = load i32, ptr %0, align 8
  %29 = icmp sgt i32 %28, %indvars
  br i1 %29, label %.lr.ph, label %._crit_edge, !llvm.loop !32

._crit_edge:                                      ; preds = %.lr.ph, %5
  %30 = getelementptr inbounds nuw i8, ptr %0, i64 4
  %31 = load i32, ptr %30, align 4
  %32 = sext i32 %31 to i64
  %33 = shl nsw i64 %32, 2
  %34 = tail call ptr @palloc(i64 noundef %33) #10
  %35 = load i32, ptr %30, align 4
  %36 = icmp sgt i32 %35, 0
  br i1 %36, label %.lr.ph103, label %.preheader98

.lr.ph103:                                        ; preds = %._crit_edge
  %37 = getelementptr inbounds nuw i8, ptr %0, i64 16
  br label %44

.preheader98:                                     ; preds = %44, %._crit_edge
  %38 = load i32, ptr %0, align 8
  %39 = icmp sgt i32 %38, 0
  br i1 %39, label %.preheader.lr.ph, label %._crit_edge118.thread

._crit_edge118.thread:                            ; preds = %.preheader98
  store i32 0, ptr %1, align 4
  br label %102

.preheader.lr.ph:                                 ; preds = %.preheader98
  %40 = icmp slt i32 %3, 1
  %41 = getelementptr inbounds nuw i8, ptr %0, i64 8
  %42 = getelementptr inbounds nuw i8, ptr %0, i64 24
  %43 = getelementptr inbounds nuw i8, ptr %0, i64 32
  br i1 %40, label %._crit_edge118.thread143, label %.preheader.preheader

.preheader.preheader:                             ; preds = %.preheader.lr.ph
  %wide.trip.count136 = zext nneg i32 %3 to i64
  br label %.preheader

._crit_edge118.thread143:                         ; preds = %.preheader.lr.ph
  store i32 %38, ptr %1, align 4
  br label %103

44:                                               ; preds = %.lr.ph103, %44
  %indvars.iv124 = phi i64 [ 0, %.lr.ph103 ], [ %indvars.iv.next125, %44 ]
  %45 = load ptr, ptr %37, align 8
  %46 = getelementptr inbounds nuw ptr, ptr %45, i64 %indvars.iv124
  %47 = load ptr, ptr %46, align 8
  %48 = getelementptr inbounds nuw i8, ptr %47, i64 4
  %49 = load i32, ptr %48, align 4
  %50 = tail call signext i16 @get_typlen(i32 noundef %49) #10
  %51 = sext i16 %50 to i32
  %52 = getelementptr inbounds nuw i32, ptr %34, i64 %indvars.iv124
  store i32 %51, ptr %52, align 4
  %indvars.iv.next125 = add nuw nsw i64 %indvars.iv124, 1
  %53 = load i32, ptr %30, align 4
  %54 = sext i32 %53 to i64
  %55 = icmp slt i64 %indvars.iv.next125, %54
  br i1 %55, label %44, label %.preheader98, !llvm.loop !33

.preheader:                                       ; preds = %.preheader.preheader, %._crit_edge112
  %indvars.iv138 = phi i64 [ 0, %.preheader.preheader ], [ %indvars.iv.next139, %._crit_edge112 ]
  %.191116 = phi i32 [ 0, %.preheader.preheader ], [ %.292, %._crit_edge112 ]
  %56 = sext i32 %.191116 to i64
  %57 = getelementptr inbounds %struct.SortItem, ptr %13, i64 %56
  %58 = getelementptr inbounds nuw i8, ptr %57, i64 8
  br label %59

59:                                               ; preds = %.preheader, %93
  %indvars.iv132 = phi i64 [ 0, %.preheader ], [ %indvars.iv.next133, %93 ]
  %60 = getelementptr inbounds nuw i16, ptr %4, i64 %indvars.iv132
  %61 = load i16, ptr %60, align 2
  %62 = load i32, ptr %30, align 4
  %63 = icmp sgt i32 %62, 0
  br i1 %63, label %.lr.ph106, label %._crit_edge107

.lr.ph106:                                        ; preds = %59
  %64 = load ptr, ptr %41, align 8
  %wide.trip.count = zext nneg i32 %62 to i64
  br label %65

65:                                               ; preds = %.lr.ph106, %69
  %indvars.iv128 = phi i64 [ 0, %.lr.ph106 ], [ %indvars.iv.next129, %69 ]
  %66 = getelementptr inbounds nuw i16, ptr %64, i64 %indvars.iv128
  %67 = load i16, ptr %66, align 2
  %68 = icmp eq i16 %61, %67
  br i1 %68, label %._crit_edge107.loopexit.split.loop.exit, label %69

69:                                               ; preds = %65
  %indvars.iv.next129 = add nuw nsw i64 %indvars.iv128, 1
  %exitcond.not = icmp eq i64 %indvars.iv.next129, %wide.trip.count
  br i1 %exitcond.not, label %._crit_edge107.loopexit, label %65, !llvm.loop !34

._crit_edge107.loopexit.split.loop.exit:          ; preds = %65
  %70 = trunc nuw nsw i64 %indvars.iv128 to i32
  br label %._crit_edge107.loopexit

._crit_edge107.loopexit:                          ; preds = %69, %._crit_edge107.loopexit.split.loop.exit
  %.082.lcssa.ph = phi i32 [ %70, %._crit_edge107.loopexit.split.loop.exit ], [ %62, %69 ]
  %71 = zext nneg i32 %.082.lcssa.ph to i64
  br label %._crit_edge107

._crit_edge107:                                   ; preds = %._crit_edge107.loopexit, %59
  %.082.lcssa = phi i64 [ 0, %59 ], [ %71, %._crit_edge107.loopexit ]
  %72 = load ptr, ptr %42, align 8
  %73 = getelementptr inbounds nuw ptr, ptr %72, i64 %.082.lcssa
  %74 = load ptr, ptr %73, align 8
  %75 = getelementptr inbounds nuw i64, ptr %74, i64 %indvars.iv138
  %76 = load i64, ptr %75, align 8
  %77 = load ptr, ptr %43, align 8
  %78 = getelementptr inbounds nuw ptr, ptr %77, i64 %.082.lcssa
  %79 = load ptr, ptr %78, align 8
  %80 = getelementptr inbounds nuw i8, ptr %79, i64 %indvars.iv138
  %81 = load i8, ptr %80, align 1, !range !8, !noundef !9
  %82 = trunc nuw i8 %81 to i1
  %83 = getelementptr inbounds nuw i32, ptr %34, i64 %.082.lcssa
  %84 = load i32, ptr %83, align 4
  %85 = icmp ne i32 %84, -1
  %or.cond.not = select i1 %82, i1 true, i1 %85
  br i1 %or.cond.not, label %93, label %86

86:                                               ; preds = %._crit_edge107
  %87 = tail call i64 @toast_raw_datum_size(i64 noundef %76) #10
  %88 = icmp ugt i64 %87, 1024
  br i1 %88, label %._crit_edge112, label %89

89:                                               ; preds = %86
  %90 = inttoptr i64 %76 to ptr
  %91 = tail call ptr @pg_detoast_datum(ptr noundef %90) #10
  %92 = ptrtoint ptr %91 to i64
  br label %93

93:                                               ; preds = %._crit_edge107, %89
  %.086 = phi i64 [ %92, %89 ], [ %76, %._crit_edge107 ]
  %94 = load ptr, ptr %57, align 8
  %95 = getelementptr inbounds nuw i64, ptr %94, i64 %indvars.iv132
  store i64 %.086, ptr %95, align 8
  %96 = load ptr, ptr %58, align 8
  %97 = getelementptr inbounds nuw i8, ptr %96, i64 %indvars.iv132
  store i8 %81, ptr %97, align 1
  %indvars.iv.next133 = add nuw nsw i64 %indvars.iv132, 1
  %exitcond137.not = icmp eq i64 %indvars.iv.next133, %wide.trip.count136
  br i1 %exitcond137.not, label %._crit_edge112, label %59, !llvm.loop !35

._crit_edge112:                                   ; preds = %93, %86
  %.lcssa = phi i32 [ 0, %86 ], [ 1, %93 ]
  %.292 = add i32 %.lcssa, %.191116
  %indvars.iv.next139 = add nuw nsw i64 %indvars.iv138, 1
  %98 = load i32, ptr %0, align 8
  %99 = sext i32 %98 to i64
  %100 = icmp slt i64 %indvars.iv.next139, %99
  br i1 %100, label %.preheader, label %._crit_edge118, !llvm.loop !36

._crit_edge118:                                   ; preds = %._crit_edge112
  store i32 %.292, ptr %1, align 4
  %101 = icmp eq i32 %.292, 0
  br i1 %101, label %102, label %103

102:                                              ; preds = %._crit_edge118.thread, %._crit_edge118
  tail call void @pfree(ptr noundef %13) #10
  br label %105

103:                                              ; preds = %._crit_edge118.thread143, %._crit_edge118
  %.191.lcssa145 = phi i32 [ %38, %._crit_edge118.thread143 ], [ %.292, %._crit_edge118 ]
  %104 = sext i32 %.191.lcssa145 to i64
  tail call void @qsort_interruptible(ptr noundef %13, i64 noundef %104, i64 noundef 24, ptr noundef nonnull @multi_sort_compare, ptr noundef %2) #10
  br label %105

105:                                              ; preds = %103, %102
  %.083 = phi ptr [ null, %102 ], [ %13, %103 ]
  ret ptr %.083
}